target datalayout = "e-m:e-p270:32:32-p271:32:32-p272:64:64-i64:64-i128:128-f80:128-n8:16:32:64-S128"
target triple = "x86_64-pc-linux-gnu"

%class.dtNavMeshQuery = type { ptr, %"struct.dtNavMeshQuery::dtQueryData", ptr, ptr, ptr }
%"struct.dtNavMeshQuery::dtQueryData" = type { i32, ptr, float, i32, i32, [3 x float], [3 x float], ptr, i32, float }
%struct.dtMeshTile = type { i32, i32, ptr, ptr, ptr, ptr, ptr, ptr, ptr, ptr, ptr, ptr, i32, i32, ptr }
%struct.dtPoly = type { i32, [6 x i16], [6 x i16], i16, i8, i8 }

@.str = private unnamed_addr constant [6 x i8] c"m_nav\00", align 1
@.str.1 = private unnamed_addr constant [148 x i8] c"generated/home/dtcxzyw/WorkSpace/Projects/compilers/llvm-opt-benchmark/bench/recastnavigation/recastnavigation/Detour/Source/DetourNavMeshQuery.cpp\00", align 1

; Function Attrs: mustprogress nounwind uwtable
define linkonce_odr noundef zeroext i1 @_ZSt8isfinitef(float noundef %0) #0 comdat {
  %2 = alloca float, align 4
  store float %0, ptr %2, align 4
  %3 = load float, ptr %2, align 4
  %4 = call i1 @llvm.is.fpclass.f32(float %3, i32 504)
  ret i1 %4
}

; Function Attrs: mustprogress uwtable
define linkonce_odr noundef zeroext i1 @_Z14dtMathIsfinitef(float noundef %0) #1 comdat {
  %2 = alloca float, align 4
  store float %0, ptr %2, align 4
  %3 = load float, ptr %2, align 4
  %4 = call noundef zeroext i1 @_ZSt8isfinitef(float noundef %3)
  ret i1 %4
}

; Function Attrs: mustprogress nounwind uwtable
define linkonce_odr noundef zeroext i8 @_ZNK6dtPoly7getTypeEv(ptr noundef nonnull align 4 dereferenceable(32) %0) #0 comdat align 2 {
  %2 = alloca ptr, align 8
  store ptr %0, ptr %2, align 8
  %3 = load ptr, ptr %2, align 8
  %4 = getelementptr inbounds %struct.dtPoly, ptr %3, i32 0, i32 5
  %5 = load i8, ptr %4, align 1
  %6 = zext i8 %5 to i32
  %7 = ashr i32 %6, 6
  %8 = trunc i32 %7 to i8
  ret i8 %8
}

; Function Attrs: mustprogress uwtable
define linkonce_odr noundef zeroext i1 @_Z13dtVisfinite2DPKf(ptr noundef %0) #1 comdat {
  %2 = alloca ptr, align 8
  %3 = alloca i8, align 1
  store ptr %0, ptr %2, align 8
  %4 = load ptr, ptr %2, align 8
  %5 = getelementptr inbounds float, ptr %4, i64 0
  %6 = load float, ptr %5, align 4
  %7 = call noundef zeroext i1 @_Z14dtMathIsfinitef(float noundef %6)
  br i1 %7, label %8, label %13

8:                                                ; preds = %1
  %9 = load ptr, ptr %2, align 8
  %10 = getelementptr inbounds float, ptr %9, i64 2
  %11 = load float, ptr %10, align 4
  %12 = call noundef zeroext i1 @_Z14dtMathIsfinitef(float noundef %11)
  br label %13

13:                                               ; preds = %8, %1
  %14 = phi i1 [ false, %1 ], [ %12, %8 ]
  %15 = zext i1 %14 to i8
  store i8 %15, ptr %3, align 1
  %16 = load i8, ptr %3, align 1
  %17 = trunc i8 %16 to i1
  ret i1 %17
}

; Function Attrs: mustprogress nounwind uwtable
define linkonce_odr noundef zeroext i1 @_Z14dtStatusFailedj(i32 noundef %0) #0 comdat {
  %2 = alloca i32, align 4
  store i32 %0, ptr %2, align 4
  %3 = load i32, ptr %2, align 4
  %4 = and i32 %3, -2147483648
  %5 = icmp ne i32 %4, 0
  ret i1 %5
}

; Function Attrs: mustprogress uwtable
define noundef i32 @_ZNK14dtNavMeshQuery13getPolyHeightEjPKfPf(ptr noundef nonnull align 8 dereferenceable(104) %0, i32 noundef %1, ptr noundef %2, ptr noundef %3) #1 align 2 {
  %5 = alloca i32, align 4
  %6 = alloca ptr, align 8
  %7 = alloca i32, align 4
  %8 = alloca ptr, align 8
  %9 = alloca ptr, align 8
  %10 = alloca ptr, align 8
  %11 = alloca ptr, align 8
  %12 = alloca ptr, align 8
  %13 = alloca ptr, align 8
  %14 = alloca ptr, align 8
  %15 = alloca float, align 4
  store ptr %0, ptr %6, align 8
  store i32 %1, ptr %7, align 4
  store ptr %2, ptr %8, align 8
  store ptr %3, ptr %9, align 8
  %16 = load ptr, ptr %6, align 8
  %17 = call noundef ptr @_Z21dtAssertFailGetCustomv()
  store ptr %17, ptr %10, align 8
  %18 = load ptr, ptr %10, align 8
  %19 = icmp eq ptr %18, null
  br i1 %19, label %20, label %21

20:                                               ; preds = %4
  br label %28

21:                                               ; preds = %4
  %22 = getelementptr inbounds %class.dtNavMeshQuery, ptr %16, i32 0, i32 0
  %23 = load ptr, ptr %22, align 8
  %24 = icmp ne ptr %23, null
  br i1 %24, label %27, label %25

25:                                               ; preds = %21
  %26 = load ptr, ptr %10, align 8
  call void %26(ptr noundef @.str, ptr noundef @.str.1, i32 noundef 593)
  br label %27

27:                                               ; preds = %25, %21
  br label %28

28:                                               ; preds = %27, %20
  store ptr null, ptr %11, align 8
  store ptr null, ptr %12, align 8
  %29 = getelementptr inbounds %class.dtNavMeshQuery, ptr %16, i32 0, i32 0
  %30 = load ptr, ptr %29, align 8
  %31 = load i32, ptr %7, align 4
  %32 = call noundef i32 @_ZNK9dtNavMesh19getTileAndPolyByRefEjPPK10dtMeshTilePPK6dtPoly(ptr noundef nonnull align 8 dereferenceable(100) %30, i32 noundef %31, ptr noundef %11, ptr noundef %12)
  %33 = call noundef zeroext i1 @_Z14dtStatusFailedj(i32 noundef %32)
  br i1 %33, label %34, label %35

34:                                               ; preds = %28
  store i32 -2147483640, ptr %5, align 4
  br label %100

35:                                               ; preds = %28
  %36 = load ptr, ptr %8, align 8
  %37 = icmp ne ptr %36, null
  br i1 %37, label %38, label %41

38:                                               ; preds = %35
  %39 = load ptr, ptr %8, align 8
  %40 = call noundef zeroext i1 @_Z13dtVisfinite2DPKf(ptr noundef %39)
  br i1 %40, label %42, label %41

41:                                               ; preds = %38, %35
  store i32 -2147483640, ptr %5, align 4
  br label %100

42:                                               ; preds = %38
  %43 = load ptr, ptr %12, align 8
  %44 = call noundef zeroext i8 @_ZNK6dtPoly7getTypeEv(ptr noundef nonnull align 4 dereferenceable(32) %43)
  %45 = zext i8 %44 to i32
  %46 = icmp eq i32 %45, 1
  br i1 %46, label %47, label %91

47:                                               ; preds = %42
  %48 = load ptr, ptr %11, align 8
  %49 = getelementptr inbounds %struct.dtMeshTile, ptr %48, i32 0, i32 4
  %50 = load ptr, ptr %49, align 8
  %51 = load ptr, ptr %12, align 8
  %52 = getelementptr inbounds %struct.dtPoly, ptr %51, i32 0, i32 1
  %53 = getelementptr inbounds [6 x i16], ptr %52, i64 0, i64 0
  %54 = load i16, ptr %53, align 4
  %55 = zext i16 %54 to i32
  %56 = mul nsw i32 %55, 3
  %57 = sext i32 %56 to i64
  %58 = getelementptr inbounds float, ptr %50, i64 %57
  store ptr %58, ptr %13, align 8
  %59 = load ptr, ptr %11, align 8
  %60 = getelementptr inbounds %struct.dtMeshTile, ptr %59, i32 0, i32 4
  %61 = load ptr, ptr %60, align 8
  %62 = load ptr, ptr %12, align 8
  %63 = getelementptr inbounds %struct.dtPoly, ptr %62, i32 0, i32 1
  %64 = getelementptr inbounds [6 x i16], ptr %63, i64 0, i64 1
  %65 = load i16, ptr %64, align 2
  %66 = zext i16 %65 to i32
  %67 = mul nsw i32 %66, 3
  %68 = sext i32 %67 to i64
  %69 = getelementptr inbounds float, ptr %61, i64 %68
  store ptr %69, ptr %14, align 8
  %70 = load ptr, ptr %8, align 8
  %71 = load ptr, ptr %13, align 8
  %72 = load ptr, ptr %14, align 8
  %73 = call noundef float @_Z20dtDistancePtSegSqr2DPKfS0_S0_Rf(ptr noundef %70, ptr noundef %71, ptr noundef %72, ptr noundef nonnull align 4 dereferenceable(4) %15)
  %74 = load ptr, ptr %9, align 8
  %75 = icmp ne ptr %74, null
  br i1 %75, label %76, label %90

76:                                               ; preds = %47
  %77 = load ptr, ptr %13, align 8
  %78 = getelementptr inbounds float, ptr %77, i64 1
  %79 = load float, ptr %78, align 4
  %80 = load ptr, ptr %14, align 8
  %81 = getelementptr inbounds float, ptr %80, i64 1
  %82 = load float, ptr %81, align 4
  %83 = load ptr, ptr %13, align 8
  %84 = getelementptr inbounds float, ptr %83, i64 1
  %85 = load float, ptr %84, align 4
  %86 = fsub float %82, %85
  %87 = load float, ptr %15, align 4
  %88 = call float @llvm.fmuladd.f32(float %86, float %87, float %79)
  %89 = load ptr, ptr %9, align 8
  store float %88, ptr %89, align 4
  br label %90

90:                                               ; preds = %76, %47
  store i32 1073741824, ptr %5, align 4
  br label %100

91:                                               ; preds = %42
  %92 = getelementptr inbounds %class.dtNavMeshQuery, ptr %16, i32 0, i32 0
  %93 = load ptr, ptr %92, align 8
  %94 = load ptr, ptr %11, align 8
  %95 = load ptr, ptr %12, align 8
  %96 = load ptr, ptr %8, align 8
  %97 = load ptr, ptr %9, align 8
  %98 = call noundef zeroext i1 @_ZNK9dtNavMesh13getPolyHeightEPK10dtMeshTilePK6dtPolyPKfPf(ptr noundef nonnull align 8 dereferenceable(100) %93, ptr noundef %94, ptr noundef %95, ptr noundef %96, ptr noundef %97)
  %99 = select i1 %98, i32 1073741824, i32 -2147483640
  store i32 %99, ptr %5, align 4
  br label %100

100:                                              ; preds = %91, %90, %41, %34
  %101 = load i32, ptr %5, align 4
  ret i32 %101
}