; Function Attrs: mustprogress uwtable
define noundef i32 @_ZNK14dtNavMeshQuery13getPolyHeightEjPKfPf(ptr nocapture noundef nonnull readonly align 8 dereferenceable(104) %0, i32 noundef %1, ptr noundef %2, ptr noundef %3) local_unnamed_addr #1 align 2 {
  %5 = alloca ptr, align 8
  %6 = alloca ptr, align 8
  %7 = alloca float, align 4
  %8 = tail call noundef ptr @_Z21dtAssertFailGetCustomv()
  %9 = icmp ne ptr %8, null
  %10 = load ptr, ptr %0, align 8
  %.not = icmp eq ptr %10, null
  %or.cond = select i1 %9, i1 %.not, i1 false
  br i1 %or.cond, label %11, label %12

11:                                               ; preds = %4
  tail call void %8(ptr noundef nonnull @.str, ptr noundef nonnull @.str.1, i32 noundef 593)
  %.pre = load ptr, ptr %0, align 8
  br label %12

12:                                               ; preds = %11, %4
  %13 = phi ptr [ %.pre, %11 ], [ %10, %4 ]
  store ptr null, ptr %5, align 8
  store ptr null, ptr %6, align 8
  %14 = call noundef i32 @_ZNK9dtNavMesh19getTileAndPolyByRefEjPPK10dtMeshTilePPK6dtPoly(ptr noundef nonnull align 8 dereferenceable(100) %13, i32 noundef %1, ptr noundef nonnull %5, ptr noundef nonnull %6)
  %15 = icmp slt i32 %14, 0
  %.not19 = icmp eq ptr %2, null
  %or.cond21 = or i1 %.not19, %15
  br i1 %or.cond21, label %_Z13dtVisfinite2DPKf.exit.thread, label %16

16:                                               ; preds = %12
  %17 = load float, ptr %2, align 4
  %18 = call float @llvm.fabs.f32(float %17)
  %19 = fcmp ueq float %18, 0x7FF0000000000000
  br i1 %19, label %_Z13dtVisfinite2DPKf.exit.thread, label %_Z13dtVisfinite2DPKf.exit

_Z13dtVisfinite2DPKf.exit:                        ; preds = %16
  %20 = getelementptr inbounds i8, ptr %2, i64 8
  %21 = load float, ptr %20, align 4
  %22 = call float @llvm.fabs.f32(float %21)
  %23 = fcmp ueq float %22, 0x7FF0000000000000
  br i1 %23, label %_Z13dtVisfinite2DPKf.exit.thread, label %24

24:                                               ; preds = %_Z13dtVisfinite2DPKf.exit
  %25 = load ptr, ptr %6, align 8
  %26 = getelementptr inbounds i8, ptr %25, i64 31
  %27 = load i8, ptr %26, align 1
  %.mask = and i8 %27, -64
  %28 = icmp eq i8 %.mask, 64
  br i1 %28, label %29, label %52

29:                                               ; preds = %24
  %30 = load ptr, ptr %5, align 8
  %31 = getelementptr inbounds i8, ptr %30, i64 24
  %32 = load ptr, ptr %31, align 8
  %33 = getelementptr inbounds i8, ptr %25, i64 4
  %34 = load i16, ptr %33, align 4
  %35 = zext i16 %34 to i64
  %36 = mul nuw nsw i64 %35, 3
  %37 = getelementptr inbounds float, ptr %32, i64 %36
  %38 = getelementptr inbounds i8, ptr %25, i64 6
  %39 = load i16, ptr %38, align 2
  %40 = zext i16 %39 to i64
  %41 = mul nuw nsw i64 %40, 3
  %42 = getelementptr inbounds float, ptr %32, i64 %41
  %43 = call noundef float @_Z20dtDistancePtSegSqr2DPKfS0_S0_Rf(ptr noundef nonnull %2, ptr noundef %37, ptr noundef %42, ptr noundef nonnull align 4 dereferenceable(4) %7)
  %.not20 = icmp eq ptr %3, null
  br i1 %.not20, label %_Z13dtVisfinite2DPKf.exit.thread, label %44

44:                                               ; preds = %29
  %45 = getelementptr inbounds i8, ptr %37, i64 4
  %46 = load float, ptr %45, align 4
  %47 = getelementptr inbounds i8, ptr %42, i64 4
  %48 = load float, ptr %47, align 4
  %49 = fsub float %48, %46
  %50 = load float, ptr %7, align 4
  %51 = call float @llvm.fmuladd.f32(float %49, float %50, float %46)
  store float %51, ptr %3, align 4
  br label %_Z13dtVisfinite2DPKf.exit.thread

52:                                               ; preds = %24
  %53 = load ptr, ptr %0, align 8
  %54 = load ptr, ptr %5, align 8
  %55 = call noundef zeroext i1 @_ZNK9dtNavMesh13getPolyHeightEPK10dtMeshTilePK6dtPolyPKfPf(ptr noundef nonnull align 8 dereferenceable(100) %53, ptr noundef %54, ptr noundef nonnull %25, ptr noundef nonnull %2, ptr noundef %3)
  %56 = select i1 %55, i32 1073741824, i32 -2147483640
  br label %_Z13dtVisfinite2DPKf.exit.thread

_Z13dtVisfinite2DPKf.exit.thread:                 ; preds = %16, %29, %44, %_Z13dtVisfinite2DPKf.exit, %12, %52
  %.0 = phi i32 [ %56, %52 ], [ -2147483640, %12 ], [ -2147483640, %_Z13dtVisfinite2DPKf.exit ], [ 1073741824, %44 ], [ 1073741824, %29 ], [ -2147483640, %16 ]
  ret i32 %.0
}